target datalayout = "e-m:e-p270:32:32-p271:32:32-p272:64:64-i64:64-i128:128-f80:128-n8:16:32:64-S128"
target triple = "x86_64-pc-linux-gnu"

%struct.expert_field = type { i32, i32 }
%struct._packet_info = type { ptr, ptr, i32, i32, %struct.nstime_t, %struct.nstime_t, %struct.nstime_t, i8, ptr, ptr, ptr, ptr, %struct._address, %struct._address, %struct._address, %struct._address, %struct._address, %struct._address, i32, ptr, i8, [3 x i8], %struct.anon, i32, i32, i32, i32, ptr, i8, ptr, ptr, i16, i16, i32, i32, i16, i32, i32, ptr, ptr, ptr, i8, i8, i16, i16, i16, i32, i16, i16, ptr, ptr, ptr, ptr, ptr, i32, i32 }
%struct.nstime_t = type { i64, i32 }
%struct._address = type { i32, i32, ptr, ptr }
%struct.anon = type { i8, [3 x i8] }

@hf_ldp_tlv_addrl_addr_family = internal global i32 0, align 4
@hf_ldp_tlv_addrl_addr = internal global i32 0, align 4
@ett_ldp_tlv_val = internal global i32 0, align 4
@ei_ldp_address_family_not_implemented = internal global %struct.expert_field zeroinitializer, align 4
@ei_ldp_tlv_fec_len = internal global %struct.expert_field zeroinitializer, align 4
@.str.1030 = private unnamed_addr constant [64 x i8] c"Error processing Address List TLV: length is %d, should be >= 2\00", align 1
@.str.1031 = private unnamed_addr constant [10 x i8] c"Addresses\00", align 1
@.str.1032 = private unnamed_addr constant [15 x i8] c"Address %u: %s\00", align 1
@.str.1033 = private unnamed_addr constant [56 x i8] c"Error processing TLV: Extra data at end of address list\00", align 1

; Function Attrs: inlinehint nounwind null_pointer_is_valid sspstrong uwtable
define internal void @set_address(ptr noundef %0, i32 noundef %1, i32 noundef %2, ptr noundef %3) #4 {
  %5 = alloca ptr, align 8
  %6 = alloca i32, align 4
  %7 = alloca i32, align 4
  %8 = alloca ptr, align 8
  store ptr %0, ptr %5, align 8
  store i32 %1, ptr %6, align 4
  store i32 %2, ptr %7, align 4
  store ptr %3, ptr %8, align 8
  %9 = load i32, ptr %7, align 4
  %10 = icmp eq i32 %9, 0
  br i1 %10, label %11, label %14

11:                                               ; preds = %4
  br label %12

12:                                               ; preds = %11
  br label %13

13:                                               ; preds = %12
  br label %19

14:                                               ; preds = %4
  br label %15

15:                                               ; preds = %14
  br label %16

16:                                               ; preds = %15
  br label %17

17:                                               ; preds = %16
  br label %18

18:                                               ; preds = %17
  br label %19

19:                                               ; preds = %18, %13
  %20 = load i32, ptr %6, align 4
  %21 = load ptr, ptr %5, align 8
  %22 = getelementptr inbounds nuw %struct._address, ptr %21, i32 0, i32 0
  store i32 %20, ptr %22, align 8
  %23 = load i32, ptr %7, align 4
  %24 = load ptr, ptr %5, align 8
  %25 = getelementptr inbounds nuw %struct._address, ptr %24, i32 0, i32 1
  store i32 %23, ptr %25, align 4
  %26 = load ptr, ptr %8, align 8
  %27 = load ptr, ptr %5, align 8
  %28 = getelementptr inbounds nuw %struct._address, ptr %27, i32 0, i32 2
  store ptr %26, ptr %28, align 8
  %29 = load ptr, ptr %5, align 8
  %30 = getelementptr inbounds nuw %struct._address, ptr %29, i32 0, i32 3
  store ptr null, ptr %30, align 8
  ret void
}

; Function Attrs: null_pointer_is_valid sspstrong uwtable
define internal void @dissect_tlv_address_list(ptr noundef %0, ptr noundef %1, i32 noundef %2, ptr noundef %3, i32 noundef %4) #0 {
  %6 = alloca ptr, align 8
  %7 = alloca ptr, align 8
  %8 = alloca i32, align 4
  %9 = alloca ptr, align 8
  %10 = alloca i32, align 4
  %11 = alloca ptr, align 8
  %12 = alloca i16, align 2
  %13 = alloca i16, align 2
  %14 = alloca i8, align 1
  %15 = alloca ptr, align 8
  %16 = alloca ptr, align 8
  %17 = alloca i32, align 4
  %18 = alloca %struct._address, align 8
  %19 = alloca i32, align 4
  store ptr %0, ptr %6, align 8
  store ptr %1, ptr %7, align 8
  store i32 %2, ptr %8, align 4
  store ptr %3, ptr %9, align 8
  store i32 %4, ptr %10, align 4
  call void @llvm.lifetime.start.p0(i64 8, ptr %11) #7
  call void @llvm.lifetime.start.p0(i64 2, ptr %12) #7
  call void @llvm.lifetime.start.p0(i64 2, ptr %13) #7
  call void @llvm.lifetime.start.p0(i64 1, ptr %14) #7
  call void @llvm.lifetime.start.p0(i64 8, ptr %15) #7
  call void @llvm.lifetime.start.p0(i64 8, ptr %16) #7
  call void @llvm.lifetime.start.p0(i64 4, ptr %17) #7
  call void @llvm.lifetime.start.p0(i64 24, ptr %18) #7
  %20 = load i32, ptr %10, align 4
  %21 = icmp slt i32 %20, 2
  br i1 %21, label %22, label %30

22:                                               ; preds = %5
  %23 = load ptr, ptr %9, align 8
  %24 = load ptr, ptr %7, align 8
  %25 = load ptr, ptr %6, align 8
  %26 = load i32, ptr %8, align 4
  %27 = load i32, ptr %10, align 4
  %28 = load i32, ptr %10, align 4
  %29 = call ptr (ptr, ptr, ptr, ptr, i32, i32, ptr, ...) @proto_tree_add_expert_format(ptr noundef %23, ptr noundef %24, ptr noundef @ei_ldp_tlv_fec_len, ptr noundef %25, i32 noundef %26, i32 noundef %27, ptr noundef @.str.1030, i32 noundef %28)
  store i32 1, ptr %19, align 4
  br label %125

30:                                               ; preds = %5
  %31 = load ptr, ptr %6, align 8
  %32 = load i32, ptr %8, align 4
  %33 = call zeroext i16 @tvb_get_ntohs(ptr noundef %31, i32 noundef %32)
  store i16 %33, ptr %12, align 2
  %34 = load ptr, ptr %9, align 8
  %35 = load i32, ptr @hf_ldp_tlv_addrl_addr_family, align 4
  %36 = load ptr, ptr %6, align 8
  %37 = load i32, ptr %8, align 4
  %38 = call ptr @proto_tree_add_item(ptr noundef %34, i32 noundef %35, ptr noundef %36, i32 noundef %37, i32 noundef 2, i32 noundef 0)
  %39 = load i16, ptr %12, align 2
  %40 = zext i16 %39 to i32
  switch i32 %40, label %43 [
    i32 1, label %41
    i32 2, label %42
  ]

41:                                               ; preds = %30
  store i8 4, ptr %14, align 1
  store i32 2, ptr %17, align 4
  br label %52

42:                                               ; preds = %30
  store i8 16, ptr %14, align 1
  store i32 3, ptr %17, align 4
  br label %52

43:                                               ; preds = %30
  %44 = load ptr, ptr %9, align 8
  %45 = load ptr, ptr %7, align 8
  %46 = load ptr, ptr %6, align 8
  %47 = load i32, ptr %8, align 4
  %48 = add i32 %47, 2
  %49 = load i32, ptr %10, align 4
  %50 = sub i32 %49, 2
  %51 = call ptr @proto_tree_add_expert(ptr noundef %44, ptr noundef %45, ptr noundef @ei_ldp_address_family_not_implemented, ptr noundef %46, i32 noundef %48, i32 noundef %50)
  store i32 1, ptr %19, align 4
  br label %125

52:                                               ; preds = %42, %41
  %53 = load i32, ptr %8, align 4
  %54 = add i32 %53, 2
  store i32 %54, ptr %8, align 4
  %55 = load i32, ptr %10, align 4
  %56 = sub i32 %55, 2
  store i32 %56, ptr %10, align 4
  %57 = load ptr, ptr %9, align 8
  %58 = load ptr, ptr %6, align 8
  %59 = load i32, ptr %8, align 4
  %60 = load i32, ptr %10, align 4
  %61 = load i32, ptr @ett_ldp_tlv_val, align 4
  %62 = call ptr @proto_tree_add_subtree(ptr noundef %57, ptr noundef %58, i32 noundef %59, i32 noundef %60, i32 noundef %61, ptr noundef null, ptr noundef @.str.1031)
  store ptr %62, ptr %11, align 8
  %63 = load ptr, ptr %7, align 8
  %64 = getelementptr inbounds nuw %struct._packet_info, ptr %63, i32 0, i32 51
  %65 = load ptr, ptr %64, align 8
  %66 = load i8, ptr %14, align 1
  %67 = zext i8 %66 to i64
  %68 = call noalias ptr @wmem_alloc(ptr noundef %65, i64 noundef %67) #10
  store ptr %68, ptr %15, align 8
  store i16 1, ptr %13, align 2
  br label %69

69:                                               ; preds = %103, %52
  %70 = load i32, ptr %10, align 4
  %71 = load i8, ptr %14, align 1
  %72 = zext i8 %71 to i32
  %73 = icmp sge i32 %70, %72
  br i1 %73, label %74, label %114

74:                                               ; preds = %69
  %75 = load ptr, ptr %6, align 8
  %76 = load ptr, ptr %15, align 8
  %77 = load i32, ptr %8, align 4
  %78 = load i8, ptr %14, align 1
  %79 = zext i8 %78 to i64
  %80 = call ptr @tvb_memcpy(ptr noundef %75, ptr noundef %76, i32 noundef %77, i64 noundef %79)
  %81 = icmp eq ptr %80, null
  br i1 %81, label %82, label %83

82:                                               ; preds = %74
  br label %114

83:                                               ; preds = %74
  %84 = load i32, ptr %17, align 4
  %85 = load i8, ptr %14, align 1
  %86 = zext i8 %85 to i32
  %87 = load ptr, ptr %15, align 8
  call void @set_address(ptr noundef %18, i32 noundef %84, i32 noundef %86, ptr noundef %87)
  %88 = load ptr, ptr %7, align 8
  %89 = getelementptr inbounds nuw %struct._packet_info, ptr %88, i32 0, i32 51
  %90 = load ptr, ptr %89, align 8
  %91 = call ptr @address_to_str(ptr noundef %90, ptr noundef %18)
  store ptr %91, ptr %16, align 8
  %92 = load ptr, ptr %11, align 8
  %93 = load i32, ptr @hf_ldp_tlv_addrl_addr, align 4
  %94 = load ptr, ptr %6, align 8
  %95 = load i32, ptr %8, align 4
  %96 = load i8, ptr %14, align 1
  %97 = zext i8 %96 to i32
  %98 = load ptr, ptr %16, align 8
  %99 = load i16, ptr %13, align 2
  %100 = zext i16 %99 to i32
  %101 = load ptr, ptr %16, align 8
  %102 = call ptr (ptr, i32, ptr, i32, i32, ptr, ptr, ...) @proto_tree_add_string_format(ptr noundef %92, i32 noundef %93, ptr noundef %94, i32 noundef %95, i32 noundef %97, ptr noundef %98, ptr noundef @.str.1032, i32 noundef %100, ptr noundef %101)
  br label %103

103:                                              ; preds = %83
  %104 = load i16, ptr %13, align 2
  %105 = add i16 %104, 1
  store i16 %105, ptr %13, align 2
  %106 = load i8, ptr %14, align 1
  %107 = zext i8 %106 to i32
  %108 = load i32, ptr %8, align 4
  %109 = add i32 %108, %107
  store i32 %109, ptr %8, align 4
  %110 = load i8, ptr %14, align 1
  %111 = zext i8 %110 to i32
  %112 = load i32, ptr %10, align 4
  %113 = sub i32 %112, %111
  store i32 %113, ptr %10, align 4
  br label %69, !llvm.loop !18

114:                                              ; preds = %82, %69
  %115 = load i32, ptr %10, align 4
  %116 = icmp ne i32 %115, 0
  br i1 %116, label %117, label %124

117:                                              ; preds = %114
  %118 = load ptr, ptr %9, align 8
  %119 = load ptr, ptr %7, align 8
  %120 = load ptr, ptr %6, align 8
  %121 = load i32, ptr %8, align 4
  %122 = load i32, ptr %10, align 4
  %123 = call ptr (ptr, ptr, ptr, ptr, i32, i32, ptr, ...) @proto_tree_add_expert_format(ptr noundef %118, ptr noundef %119, ptr noundef @ei_ldp_tlv_fec_len, ptr noundef %120, i32 noundef %121, i32 noundef %122, ptr noundef @.str.1033)
  br label %124

124:                                              ; preds = %117, %114
  store i32 0, ptr %19, align 4
  br label %125

125:                                              ; preds = %124, %43, %22
  call void @llvm.lifetime.end.p0(i64 24, ptr %18) #7
  call void @llvm.lifetime.end.p0(i64 4, ptr %17) #7
  call void @llvm.lifetime.end.p0(i64 8, ptr %16) #7
  call void @llvm.lifetime.end.p0(i64 8, ptr %15) #7
  call void @llvm.lifetime.end.p0(i64 1, ptr %14) #7
  call void @llvm.lifetime.end.p0(i64 2, ptr %13) #7
  call void @llvm.lifetime.end.p0(i64 2, ptr %12) #7
  call void @llvm.lifetime.end.p0(i64 8, ptr %11) #7
  %126 = load i32, ptr %19, align 4
  switch i32 %126, label %128 [
    i32 0, label %127
    i32 1, label %127
  ]

127:                                              ; preds = %125, %125
  ret void

128:                                              ; preds = %125
  unreachable
}