; Function Attrs: null_pointer_is_valid sspstrong uwtable
define internal fastcc void @dissect_tlv_address_list(ptr noundef %0, ptr noundef %1, i32 noundef %2, ptr noundef %3, i32 noundef range(i32 0, 2147483644) %4) unnamed_addr #0 {
  %6 = alloca %struct._address, align 8
  call void @llvm.lifetime.start.p0(i64 24, ptr nonnull %6) #7
  %7 = icmp samesign ult i32 %4, 2
  br i1 %7, label %8, label %10

8:                                                ; preds = %5
  %9 = tail call ptr (ptr, ptr, ptr, ptr, i32, i32, ptr, ...) @proto_tree_add_expert_format(ptr noundef %3, ptr noundef %1, ptr noundef nonnull @ei_ldp_tlv_fec_len, ptr noundef %0, i32 noundef %2, i32 noundef %4, ptr noundef nonnull @.str.1030, i32 noundef %4)
  br label %46

10:                                               ; preds = %5
  %11 = tail call zeroext i16 @tvb_get_ntohs(ptr noundef %0, i32 noundef %2)
  %12 = load i32, ptr @hf_ldp_tlv_addrl_addr_family, align 4
  %13 = tail call ptr @proto_tree_add_item(ptr noundef %3, i32 noundef %12, ptr noundef %0, i32 noundef %2, i32 noundef 2, i32 noundef 0)
  switch i16 %11, label %15 [
    i16 1, label %19
    i16 2, label %14
  ]

14:                                               ; preds = %10
  br label %19

15:                                               ; preds = %10
  %16 = add i32 %2, 2
  %17 = add nsw i32 %4, -2
  %18 = tail call ptr @proto_tree_add_expert(ptr noundef %3, ptr noundef %1, ptr noundef nonnull @ei_ldp_address_family_not_implemented, ptr noundef %0, i32 noundef %16, i32 noundef %17)
  br label %46

19:                                               ; preds = %10, %14
  %.055 = phi i8 [ 16, %14 ], [ 4, %10 ]
  %.0 = phi i32 [ 3, %14 ], [ 2, %10 ]
  %20 = add i32 %2, 2
  %21 = add nsw i32 %4, -2
  %22 = load i32, ptr @ett_ldp_tlv_val, align 4
  %23 = tail call ptr @proto_tree_add_subtree(ptr noundef %3, ptr noundef %0, i32 noundef %20, i32 noundef %21, i32 noundef %22, ptr noundef null, ptr noundef nonnull @.str.1031)
  %24 = getelementptr inbounds nuw i8, ptr %1, i64 408
  %25 = load ptr, ptr %24, align 8
  %26 = zext nneg i8 %.055 to i64
  %27 = tail call noalias ptr @wmem_alloc(ptr noundef %25, i64 noundef %26) #10
  %28 = zext nneg i8 %.055 to i32
  %.not60 = icmp samesign ult i32 %21, %28
  br i1 %.not60, label %._crit_edge, label %.lr.ph

.lr.ph:                                           ; preds = %19
  %29 = getelementptr inbounds nuw i8, ptr %6, i64 4
  %30 = getelementptr inbounds nuw i8, ptr %6, i64 8
  %31 = getelementptr inbounds nuw i8, ptr %6, i64 16
  br label %32

32:                                               ; preds = %.lr.ph, %35
  %.05363 = phi i32 [ %20, %.lr.ph ], [ %42, %35 ]
  %.05462 = phi i32 [ %21, %.lr.ph ], [ %43, %35 ]
  %.05661 = phi i16 [ 1, %.lr.ph ], [ %41, %35 ]
  %33 = call ptr @tvb_memcpy(ptr noundef %0, ptr noundef %27, i32 noundef %.05363, i64 noundef %26)
  %34 = icmp eq ptr %33, null
  br i1 %34, label %._crit_edge, label %35

35:                                               ; preds = %32
  store i32 %.0, ptr %6, align 8
  store i32 %28, ptr %29, align 4
  store ptr %27, ptr %30, align 8
  store ptr null, ptr %31, align 8
  %36 = load ptr, ptr %24, align 8
  %37 = call ptr @address_to_str(ptr noundef %36, ptr noundef nonnull %6)
  %38 = load i32, ptr @hf_ldp_tlv_addrl_addr, align 4
  %39 = zext i16 %.05661 to i32
  %40 = call ptr (ptr, i32, ptr, i32, i32, ptr, ptr, ...) @proto_tree_add_string_format(ptr noundef %23, i32 noundef %38, ptr noundef %0, i32 noundef %.05363, i32 noundef %28, ptr noundef %37, ptr noundef nonnull @.str.1032, i32 noundef %39, ptr noundef %37)
  %41 = add i16 %.05661, 1
  %42 = add i32 %.05363, %28
  %43 = sub nsw i32 %.05462, %28
  %.not = icmp slt i32 %43, %28
  br i1 %.not, label %._crit_edge, label %32, !llvm.loop !17

._crit_edge:                                      ; preds = %35, %32, %19
  %.054.lcssa = phi i32 [ %21, %19 ], [ %.05462, %32 ], [ %43, %35 ]
  %.053.lcssa = phi i32 [ %20, %19 ], [ %.05363, %32 ], [ %42, %35 ]
  %.not59 = icmp eq i32 %.054.lcssa, 0
  br i1 %.not59, label %46, label %44

44:                                               ; preds = %._crit_edge
  %45 = call ptr (ptr, ptr, ptr, ptr, i32, i32, ptr, ...) @proto_tree_add_expert_format(ptr noundef %3, ptr noundef %1, ptr noundef nonnull @ei_ldp_tlv_fec_len, ptr noundef %0, i32 noundef %.053.lcssa, i32 noundef %.054.lcssa, ptr noundef nonnull @.str.1033)
  br label %46

46:                                               ; preds = %._crit_edge, %44, %15, %8
  call void @llvm.lifetime.end.p0(i64 24, ptr nonnull %6) #7
  ret void
}